; ModuleID = '12/644.c'
source_filename = "12/644.c"
target datalayout = "e-m:e-p270:32:32-p271:32:32-p272:64:64-i64:64-f80:128-n8:16:32:64-S128"
target triple = "x86_64-pc-linux-gnu"

@.str = private unnamed_addr constant [3 x i8] c"%d\00", align 1
@.str.1 = private unnamed_addr constant [4 x i8] c"%d\0A\00", align 1

; Function Attrs: noinline nounwind uwtable
define dso_local i32 @main() #0 {
  %1 = alloca i32, align 4
  %2 = alloca [20 x i32], align 16
  %3 = alloca [20 x i32], align 16
  %4 = alloca i32, align 4
  %5 = alloca i32, align 4
  %6 = alloca i32, align 4
  %7 = alloca i32, align 4
  store i32 0, i32* %1, align 4
  store i32 1, i32* %4, align 4
  store i32 0, i32* %7, align 4
  br label %8

8:                                                ; preds = %0, %83
  %9 = load i32, i32* %4, align 4
  %10 = sext i32 %9 to i64
  %11 = getelementptr inbounds [20 x i32], [20 x i32]* %2, i64 0, i64 %10
  %12 = call i32 (i8*, ...) @__isoc99_scanf(i8* getelementptr inbounds ([3 x i8], [3 x i8]* @.str, i64 0, i64 0), i32* %11)
  %13 = load i32, i32* %4, align 4
  %14 = sext i32 %13 to i64
  %15 = getelementptr inbounds [20 x i32], [20 x i32]* %2, i64 0, i64 %14
  %16 = load i32, i32* %15, align 4
  %17 = icmp eq i32 %16, -1
  br i1 %17, label %18, label %19

18:                                               ; preds = %8
  br label %84

19:                                               ; preds = %8
  %20 = load i32, i32* %4, align 4
  %21 = sext i32 %20 to i64
  %22 = getelementptr inbounds [20 x i32], [20 x i32]* %2, i64 0, i64 %21
  %23 = load i32, i32* %22, align 4
  %24 = icmp eq i32 %23, 0
  br i1 %24, label %25, label %79

25:                                               ; preds = %19
  store i32 1, i32* %5, align 4
  br label %26

26:                                               ; preds = %40, %25
  %27 = load i32, i32* %5, align 4
  %28 = load i32, i32* %4, align 4
  %29 = sub nsw i32 %28, 1
  %30 = icmp sle i32 %27, %29
  br i1 %30, label %31, label %43

31:                                               ; preds = %26
  %32 = load i32, i32* %5, align 4
  %33 = sext i32 %32 to i64
  %34 = getelementptr inbounds [20 x i32], [20 x i32]* %2, i64 0, i64 %33
  %35 = load i32, i32* %34, align 4
  %36 = mul nsw i32 %35, 2
  %37 = load i32, i32* %5, align 4
  %38 = sext i32 %37 to i64
  %39 = getelementptr inbounds [20 x i32], [20 x i32]* %3, i64 0, i64 %38
  store i32 %36, i32* %39, align 4
  br label %40

40:                                               ; preds = %31
  %41 = load i32, i32* %5, align 4
  %42 = add nsw i32 %41, 1
  store i32 %42, i32* %5, align 4
  br label %26

43:                                               ; preds = %26
  store i32 1, i32* %5, align 4
  br label %44

44:                                               ; preds = %73, %43
  %45 = load i32, i32* %5, align 4
  %46 = load i32, i32* %4, align 4
  %47 = sub nsw i32 %46, 1
  %48 = icmp sle i32 %45, %47
  br i1 %48, label %49, label %76

49:                                               ; preds = %44
  store i32 1, i32* %6, align 4
  br label %50

50:                                               ; preds = %69, %49
  %51 = load i32, i32* %6, align 4
  %52 = load i32, i32* %4, align 4
  %53 = sub nsw i32 %52, 1
  %54 = icmp sle i32 %51, %53
  br i1 %54, label %55, label %72

55:                                               ; preds = %50
  %56 = load i32, i32* %5, align 4
  %57 = sext i32 %56 to i64
  %58 = getelementptr inbounds [20 x i32], [20 x i32]* %3, i64 0, i64 %57
  %59 = load i32, i32* %58, align 4
  %60 = load i32, i32* %6, align 4
  %61 = sext i32 %60 to i64
  %62 = getelementptr inbounds [20 x i32], [20 x i32]* %2, i64 0, i64 %61
  %63 = load i32, i32* %62, align 4
  %64 = icmp eq i32 %59, %63
  br i1 %64, label %65, label %68

65:                                               ; preds = %55
  %66 = load i32, i32* %7, align 4
  %67 = add nsw i32 %66, 1
  store i32 %67, i32* %7, align 4
  br label %68

68:                                               ; preds = %65, %55
  br label %69

69:                                               ; preds = %68
  %70 = load i32, i32* %6, align 4
  %71 = add nsw i32 %70, 1
  store i32 %71, i32* %6, align 4
  br label %50

72:                                               ; preds = %50
  br label %73

73:                                               ; preds = %72
  %74 = load i32, i32* %5, align 4
  %75 = add nsw i32 %74, 1
  store i32 %75, i32* %5, align 4
  br label %44

76:                                               ; preds = %44
  %77 = load i32, i32* %7, align 4
  %78 = call i32 (i8*, ...) @printf(i8* getelementptr inbounds ([4 x i8], [4 x i8]* @.str.1, i64 0, i64 0), i32 %77)
  store i32 1, i32* %4, align 4
  store i32 0, i32* %7, align 4
  br label %82

79:                                               ; preds = %19
  %80 = load i32, i32* %4, align 4
  %81 = add nsw i32 %80, 1
  store i32 %81, i32* %4, align 4
  br label %82

82:                                               ; preds = %79, %76
  br label %83

83:                                               ; preds = %82
  br label %8

84:                                               ; preds = %18
  ret i32 0
}

declare dso_local i32 @__isoc99_scanf(i8*, ...) #1

declare dso_local i32 @printf(i8*, ...) #1


!llvm.module.flags = !{!0}
!llvm.ident = !{!1}

!0 = !{i32 1, !"wchar_size", i32 4}
!1 = !{!"clang version 10.0.0-4ubuntu1 "}
